Certificate:
    Data:
        Version: 3 (0x2)
        Serial Number: 2 (0x2)
    Signature Algorithm: sha256WithRSAEncryption
        Issuer: C=CN, ST=BJ, L=BJ, O=99cloud, OU=bj, CN=99cloudca/name=EasyRSA/emailAddress=gong.yongsheng@99cloud.net
        Validity
            Not Before: Apr 30 00:54:20 2015 GMT
            Not After : Apr 27 00:54:20 2025 GMT
        Subject: C=CN, ST=BJ, L=BJ, O=99cloud, OU=bj, CN=99cloudvpnclientbj/name=EasyRSA/emailAddress=gong.yongsheng@99cloud.net
        Subject Public Key Info:
            Public Key Algorithm: rsaEncryption
                Public-Key: (2048 bit)
                Modulus:
                    00:e0:bf:05:bb:0f:de:11:65:55:de:5f:84:c4:88:
                    16:b1:4e:df:8c:dc:f5:23:50:01:ad:82:57:02:21:
                    35:55:1f:6c:ff:be:bf:06:21:79:37:68:2f:46:44:
                    ec:72:bc:0a:fa:16:08:f8:7b:bb:9b:e6:fb:d9:54:
                    9c:aa:de:77:df:9d:28:69:13:ed:0b:c4:6f:0c:36:
                    7f:35:85:e3:d7:7d:f8:80:46:5f:1a:dd:78:df:48:
                    c4:67:d9:88:d3:a5:4c:3d:ca:00:4f:22:f9:d7:cc:
                    36:d1:72:9b:ca:2c:13:a4:87:ec:3f:f4:8f:ef:62:
                    4c:08:b4:70:28:14:bf:48:f0:8f:11:aa:83:4a:a5:
                    83:a2:8e:2d:de:8f:6c:26:59:f3:c1:8c:c5:ff:83:
                    e2:ce:51:00:44:ce:85:77:84:65:31:1a:63:53:2e:
                    87:13:09:86:a9:01:f9:ff:a1:ae:3a:01:18:29:5d:
                    d6:a3:7c:c0:d8:23:ac:2e:c7:75:a9:43:55:f5:88:
                    01:0e:6d:30:3f:c1:c2:62:6f:67:1d:a0:5a:67:3e:
                    77:17:d7:76:eb:f9:e3:c4:e1:78:fb:8d:28:a6:40:
                    d2:5b:7e:d8:f1:14:22:78:e5:d2:87:3c:9b:a2:02:
                    91:03:df:1f:2d:c2:b9:3b:63:9f:79:24:b1:7b:21:
                    6c:87
                Exponent: 65537 (0x10001)
        X509v3 extensions:
            X509v3 Basic Constraints: 
                CA:FALSE
            Netscape Comment: 
                Easy-RSA Generated Certificate
            X509v3 Subject Key Identifier: 
                73:13:82:6F:54:DF:F1:1B:73:B5:3C:6F:A2:81:10:53:BA:AA:AD:7C
            X509v3 Authority Key Identifier: 
                keyid:59:6A:99:8B:82:88:B6:5D:F5:DE:07:A6:28:89:0C:A1:F7:1F:41:3C
                DirName:/C=CN/ST=BJ/L=BJ/O=99cloud/OU=bj/CN=99cloudca/name=EasyRSA/emailAddress=gong.yongsheng@99cloud.net
                serial:C4:71:D6:ED:32:8A:42:E3

            X509v3 Extended Key Usage: 
                TLS Web Client Authentication
            X509v3 Key Usage: 
                Digital Signature
    Signature Algorithm: sha256WithRSAEncryption
         a7:7b:9d:11:d7:23:af:10:07:6a:7c:b4:1c:79:a8:24:0c:f3:
         7f:78:1e:68:fc:c9:cf:ab:2a:6a:94:0c:cf:f8:9a:2e:12:59:
         52:ed:69:7a:9b:63:6b:90:9a:02:5a:49:64:89:3f:46:c0:8e:
         4c:a5:e5:88:b2:98:80:6c:f8:87:f2:31:93:57:07:46:b2:a7:
         dd:e6:f6:fb:04:3b:15:3f:63:1c:c9:22:81:ff:ac:68:d7:2b:
         a6:eb:a4:16:e5:3b:04:79:72:a8:05:e5:70:47:e8:e6:9d:ad:
         ab:31:0c:c6:ed:0e:7e:fe:79:b2:50:fc:48:90:70:37:f8:ed:
         4e:05:3b:3f:8f:85:6b:aa:ac:01:a0:bd:35:a9:a7:a2:a9:6f:
         64:e4:e7:89:7c:20:0c:55:64:77:0e:15:b5:77:16:2b:a1:1c:
         d2:c8:3e:32:24:e0:ca:a5:de:64:09:61:32:0e:ff:d7:1e:c3:
         d7:d2:d6:ca:b9:2b:b8:a7:9f:d4:12:00:6e:d6:9b:ce:ec:31:
         3d:bb:33:7f:b1:30:83:cb:89:2d:67:fd:5f:4e:20:0b:fb:6d:
         1e:1c:82:7a:61:f3:73:9e:a6:2a:23:b2:e7:be:cd:bf:9c:db:
         4f:fa:d3:30:25:33:7d:4d:98:c0:bc:ef:57:07:ed:21:e8:77:
         1b:b8:71:8e
-----BEGIN CERTIFICATE-----
MIIFBDCCA+ygAwIBAgIBAjANBgkqhkiG9w0BAQsFADCBlzELMAkGA1UEBhMCQ04x
CzAJBgNVBAgTAkJKMQswCQYDVQQHEwJCSjEQMA4GA1UEChMHOTljbG91ZDELMAkG
A1UECxMCYmoxEjAQBgNVBAMTCTk5Y2xvdWRjYTEQMA4GA1UEKRMHRWFzeVJTQTEp
MCcGCSqGSIb3DQEJARYaZ29uZy55b25nc2hlbmdAOTljbG91ZC5uZXQwHhcNMTUw
NDMwMDA1NDIwWhcNMjUwNDI3MDA1NDIwWjCBoDELMAkGA1UEBhMCQ04xCzAJBgNV
BAgTAkJKMQswCQYDVQQHEwJCSjEQMA4GA1UEChMHOTljbG91ZDELMAkGA1UECxMC
YmoxGzAZBgNVBAMTEjk5Y2xvdWR2cG5jbGllbnRiajEQMA4GA1UEKRMHRWFzeVJT
QTEpMCcGCSqGSIb3DQEJARYaZ29uZy55b25nc2hlbmdAOTljbG91ZC5uZXQwggEi
MA0GCSqGSIb3DQEBAQUAA4IBDwAwggEKAoIBAQDgvwW7D94RZVXeX4TEiBaxTt+M
3PUjUAGtglcCITVVH2z/vr8GIXk3aC9GROxyvAr6Fgj4e7ub5vvZVJyq3nffnShp
E+0LxG8MNn81hePXffiARl8a3XjfSMRn2YjTpUw9ygBPIvnXzDbRcpvKLBOkh+w/
9I/vYkwItHAoFL9I8I8RqoNKpYOiji3ej2wmWfPBjMX/g+LOUQBEzoV3hGUxGmNT
LocTCYapAfn/oa46ARgpXdajfMDYI6wux3WpQ1X1iAEObTA/wcJib2cdoFpnPncX
13br+ePE4Xj7jSimQNJbftjxFCJ45dKHPJuiApED3x8twrk7Y595JLF7IWyHAgMB
AAGjggFOMIIBSjAJBgNVHRMEAjAAMC0GCWCGSAGG+EIBDQQgFh5FYXN5LVJTQSBH
ZW5lcmF0ZWQgQ2VydGlmaWNhdGUwHQYDVR0OBBYEFHMTgm9U3/Ebc7U8b6KBEFO6
qq18MIHMBgNVHSMEgcQwgcGAFFlqmYuCiLZd9d4HpiiJDKH3H0E8oYGdpIGaMIGX
MQswCQYDVQQGEwJDTjELMAkGA1UECBMCQkoxCzAJBgNVBAcTAkJKMRAwDgYDVQQK
Ewc5OWNsb3VkMQswCQYDVQQLEwJiajESMBAGA1UEAxMJOTljbG91ZGNhMRAwDgYD
VQQpEwdFYXN5UlNBMSkwJwYJKoZIhvcNAQkBFhpnb25nLnlvbmdzaGVuZ0A5OWNs
b3VkLm5ldIIJAMRx1u0yikLjMBMGA1UdJQQMMAoGCCsGAQUFBwMCMAsGA1UdDwQE
AwIHgDANBgkqhkiG9w0BAQsFAAOCAQEAp3udEdcjrxAHany0HHmoJAzzf3geaPzJ
z6sqapQMz/iaLhJZUu1peptja5CaAlpJZIk/RsCOTKXliLKYgGz4h/Ixk1cHRrKn
3eb2+wQ7FT9jHMkigf+saNcrpuukFuU7BHlyqAXlcEfo5p2tqzEMxu0Ofv55slD8
SJBwN/jtTgU7P4+Fa6qsAaC9NamnoqlvZOTniXwgDFVkdw4VtXcWK6Ec0sg+MiTg
yqXeZAlhMg7/1x7D19LWyrkruKef1BIAbtabzuwxPbszf7Ewg8uJLWf9X04gC/tt
HhyCemHzc56mKiOy577Nv5zbT/rTMCUzfU2YwLzvVwftIeh3G7hxjg==
-----END CERTIFICATE-----
