Certificate:
    Data:
        Version: 3 (0x2)
        Serial Number: 3 (0x3)
    Signature Algorithm: sha256WithRSAEncryption
        Issuer: C=CN, ST=BJ, L=BJ, O=99cloud, OU=bj, CN=99cloudca/name=EasyRSA/emailAddress=gong.yongsheng@99cloud.net
        Validity
            Not Before: Apr 30 00:54:59 2015 GMT
            Not After : Apr 27 00:54:59 2025 GMT
        Subject: C=CN, ST=BJ, L=BJ, O=99cloud, OU=bj, CN=99cloudvpnclientsh/name=EasyRSA/emailAddress=gong.yongsheng@99cloud.net
        Subject Public Key Info:
            Public Key Algorithm: rsaEncryption
                Public-Key: (2048 bit)
                Modulus:
                    00:9a:1e:dd:4f:26:aa:b0:cf:ee:be:8e:57:81:96:
                    0e:ab:74:04:99:4e:23:5b:b5:97:04:d3:99:f5:fb:
                    e6:5f:c3:ce:7d:f8:f9:77:4a:cf:b7:2b:60:c3:c7:
                    f2:e5:dd:7b:14:db:bd:56:fa:9e:6a:09:cb:9d:f0:
                    1f:86:11:61:70:80:91:37:85:45:b2:da:79:41:96:
                    3c:ca:d2:66:49:88:d9:65:36:f6:c5:a4:bd:92:2a:
                    ff:ef:09:c3:c2:b2:35:fd:8d:80:28:6c:96:5d:80:
                    f6:47:99:84:10:70:28:e8:61:67:43:09:26:91:95:
                    27:8a:dc:23:88:f4:58:c7:f9:5b:ab:6c:91:30:42:
                    e9:55:f3:76:3d:ef:f2:41:1e:c9:0a:e3:2c:44:f7:
                    8b:df:b8:e7:5a:4f:f0:90:c6:22:b8:1a:cb:f4:ee:
                    d3:10:57:a5:18:d8:95:57:0b:77:ea:2a:4a:21:dc:
                    bd:99:d3:71:b3:6a:94:e0:85:1c:3d:1b:d8:35:92:
                    e4:5e:6a:30:8e:5e:76:7e:cf:51:60:9e:d4:67:0f:
                    4f:90:4c:83:70:cf:d3:76:bb:9c:4c:34:24:68:e6:
                    7c:15:39:77:af:e5:33:b7:11:32:ef:c8:78:d5:45:
                    9c:55:a0:14:69:0e:f8:69:ee:16:bc:9f:8a:4a:e6:
                    03:e7
                Exponent: 65537 (0x10001)
        X509v3 extensions:
            X509v3 Basic Constraints: 
                CA:FALSE
            Netscape Comment: 
                Easy-RSA Generated Certificate
            X509v3 Subject Key Identifier: 
                6B:39:E4:C7:B1:C5:A4:2B:DE:52:DC:B2:6A:82:D8:20:7A:08:E0:D5
            X509v3 Authority Key Identifier: 
                keyid:59:6A:99:8B:82:88:B6:5D:F5:DE:07:A6:28:89:0C:A1:F7:1F:41:3C
                DirName:/C=CN/ST=BJ/L=BJ/O=99cloud/OU=bj/CN=99cloudca/name=EasyRSA/emailAddress=gong.yongsheng@99cloud.net
                serial:C4:71:D6:ED:32:8A:42:E3

            X509v3 Extended Key Usage: 
                TLS Web Client Authentication
            X509v3 Key Usage: 
                Digital Signature
    Signature Algorithm: sha256WithRSAEncryption
         28:4c:22:06:f7:31:f0:2b:cd:30:21:5b:9f:c1:78:2b:b8:bb:
         40:77:cb:95:5b:a6:c7:92:f9:a7:ff:36:2c:d4:0b:e0:1d:48:
         b4:ce:0d:a8:96:2e:4e:75:8a:cf:14:79:6e:1e:e1:6b:25:f7:
         ad:b8:9d:b4:f1:17:65:82:95:8b:cd:7f:d4:4a:a7:23:c8:69:
         fd:1f:9e:e3:01:b4:ee:70:32:89:a4:fe:29:6a:3d:85:32:40:
         6f:2c:eb:b2:32:e8:58:9a:c5:97:fd:e7:9d:91:71:22:0a:aa:
         6a:9b:e8:b1:1e:e4:9c:a6:61:5c:64:1d:ff:42:ee:f3:ff:63:
         2e:da:2e:3f:ee:35:3d:81:1a:42:7d:d4:e7:8f:be:aa:7c:67:
         83:8d:04:ca:45:b7:c1:5d:9f:81:29:8b:44:d6:54:54:31:33:
         45:45:14:b3:b9:94:4f:c3:ff:c5:31:01:bc:c3:bb:51:6c:ed:
         24:b5:36:0a:f7:2c:54:07:b3:ff:a0:87:cd:41:de:cf:d0:b8:
         26:5e:ba:71:74:dd:37:95:da:99:5e:59:ff:36:07:70:8f:14:
         bc:83:a9:31:a7:20:16:8a:1d:5b:ee:77:4a:45:7f:26:07:f8:
         52:cc:75:a3:46:05:d6:0a:dc:65:76:61:ff:58:ce:82:81:1e:
         5c:c8:a4:06
-----BEGIN CERTIFICATE-----
MIIFBDCCA+ygAwIBAgIBAzANBgkqhkiG9w0BAQsFADCBlzELMAkGA1UEBhMCQ04x
CzAJBgNVBAgTAkJKMQswCQYDVQQHEwJCSjEQMA4GA1UEChMHOTljbG91ZDELMAkG
A1UECxMCYmoxEjAQBgNVBAMTCTk5Y2xvdWRjYTEQMA4GA1UEKRMHRWFzeVJTQTEp
MCcGCSqGSIb3DQEJARYaZ29uZy55b25nc2hlbmdAOTljbG91ZC5uZXQwHhcNMTUw
NDMwMDA1NDU5WhcNMjUwNDI3MDA1NDU5WjCBoDELMAkGA1UEBhMCQ04xCzAJBgNV
BAgTAkJKMQswCQYDVQQHEwJCSjEQMA4GA1UEChMHOTljbG91ZDELMAkGA1UECxMC
YmoxGzAZBgNVBAMTEjk5Y2xvdWR2cG5jbGllbnRzaDEQMA4GA1UEKRMHRWFzeVJT
QTEpMCcGCSqGSIb3DQEJARYaZ29uZy55b25nc2hlbmdAOTljbG91ZC5uZXQwggEi
MA0GCSqGSIb3DQEBAQUAA4IBDwAwggEKAoIBAQCaHt1PJqqwz+6+jleBlg6rdASZ
TiNbtZcE05n1++Zfw859+Pl3Ss+3K2DDx/Ll3XsU271W+p5qCcud8B+GEWFwgJE3
hUWy2nlBljzK0mZJiNllNvbFpL2SKv/vCcPCsjX9jYAobJZdgPZHmYQQcCjoYWdD
CSaRlSeK3COI9FjH+VurbJEwQulV83Y97/JBHskK4yxE94vfuOdaT/CQxiK4Gsv0
7tMQV6UY2JVXC3fqKkoh3L2Z03GzapTghRw9G9g1kuReajCOXnZ+z1FgntRnD0+Q
TINwz9N2u5xMNCRo5nwVOXev5TO3ETLvyHjVRZxVoBRpDvhp7ha8n4pK5gPnAgMB
AAGjggFOMIIBSjAJBgNVHRMEAjAAMC0GCWCGSAGG+EIBDQQgFh5FYXN5LVJTQSBH
ZW5lcmF0ZWQgQ2VydGlmaWNhdGUwHQYDVR0OBBYEFGs55MexxaQr3lLcsmqC2CB6
CODVMIHMBgNVHSMEgcQwgcGAFFlqmYuCiLZd9d4HpiiJDKH3H0E8oYGdpIGaMIGX
MQswCQYDVQQGEwJDTjELMAkGA1UECBMCQkoxCzAJBgNVBAcTAkJKMRAwDgYDVQQK
Ewc5OWNsb3VkMQswCQYDVQQLEwJiajESMBAGA1UEAxMJOTljbG91ZGNhMRAwDgYD
VQQpEwdFYXN5UlNBMSkwJwYJKoZIhvcNAQkBFhpnb25nLnlvbmdzaGVuZ0A5OWNs
b3VkLm5ldIIJAMRx1u0yikLjMBMGA1UdJQQMMAoGCCsGAQUFBwMCMAsGA1UdDwQE
AwIHgDANBgkqhkiG9w0BAQsFAAOCAQEAKEwiBvcx8CvNMCFbn8F4K7i7QHfLlVum
x5L5p/82LNQL4B1ItM4NqJYuTnWKzxR5bh7hayX3rbidtPEXZYKVi81/1EqnI8hp
/R+e4wG07nAyiaT+KWo9hTJAbyzrsjLoWJrFl/3nnZFxIgqqapvosR7knKZhXGQd
/0Lu8/9jLtouP+41PYEaQn3U54++qnxng40EykW3wV2fgSmLRNZUVDEzRUUUs7mU
T8P/xTEBvMO7UWztJLU2CvcsVAez/6CHzUHez9C4Jl66cXTdN5XamV5Z/zYHcI8U
vIOpMacgFoodW+53SkV/Jgf4Usx1o0YF1grcZXZh/1jOgoEeXMikBg==
-----END CERTIFICATE-----
