Certificate:
    Data:
        Version: 3 (0x2)
        Serial Number: 1 (0x1)
    Signature Algorithm: sha256WithRSAEncryption
        Issuer: C=CN, ST=BJ, L=BJ, O=99cloud, OU=bj, CN=99cloudca/name=EasyRSA/emailAddress=gong.yongsheng@99cloud.net
        Validity
            Not Before: Apr 30 00:53:57 2015 GMT
            Not After : Apr 27 00:53:57 2025 GMT
        Subject: C=CN, ST=BJ, L=BJ, O=99cloud, OU=bj, CN=99cloudvpnserver/name=EasyRSA/emailAddress=gong.yongsheng@99cloud.net
        Subject Public Key Info:
            Public Key Algorithm: rsaEncryption
                Public-Key: (2048 bit)
                Modulus:
                    00:cc:37:45:00:2c:4e:38:b6:29:ff:0f:dd:d2:d2:
                    3a:e9:89:0e:09:fd:ef:8a:10:a7:d4:6f:7f:70:78:
                    69:12:9b:e8:32:27:9c:89:3a:1b:3f:00:e1:e5:e2:
                    a8:f6:f0:af:7a:f9:7e:1b:fb:fc:e3:cb:0f:c7:87:
                    92:8b:b3:4d:f8:46:92:d9:a8:ed:14:79:d0:a2:b4:
                    96:44:ce:c0:7f:99:7c:1a:68:80:25:bc:c8:b5:b6:
                    aa:da:d7:d9:c1:1d:e4:62:6c:48:80:50:b7:c1:b8:
                    11:68:c0:f2:f7:da:fc:57:9e:04:29:e3:92:4e:17:
                    04:36:e0:65:45:58:21:30:49:9e:29:77:71:a2:e5:
                    e1:db:ba:ce:24:4d:ba:72:eb:c1:93:fa:bb:b1:13:
                    91:8d:71:ef:b1:fe:13:e8:87:2f:8e:1e:cd:97:4e:
                    22:62:96:1c:54:2e:1d:6c:04:8d:71:c3:c0:82:1b:
                    c7:bf:f7:16:84:15:eb:a5:9e:17:5e:d6:c9:3a:68:
                    e9:18:50:55:c9:b1:aa:ae:8f:3f:38:79:15:4c:53:
                    f7:02:81:5c:45:c9:6f:63:54:8c:99:35:c9:79:1f:
                    da:fc:83:bf:c9:b9:9c:29:ff:3d:9b:f8:98:ff:df:
                    bb:64:32:53:c5:83:e5:40:21:a5:2b:81:a5:a1:ca:
                    90:23
                Exponent: 65537 (0x10001)
        X509v3 extensions:
            X509v3 Basic Constraints: 
                CA:FALSE
            Netscape Cert Type: 
                SSL Server
            Netscape Comment: 
                Easy-RSA Generated Server Certificate
            X509v3 Subject Key Identifier: 
                C9:74:15:ED:93:E7:4F:05:41:53:FE:C3:B9:B0:5B:DB:39:63:FB:68
            X509v3 Authority Key Identifier: 
                keyid:59:6A:99:8B:82:88:B6:5D:F5:DE:07:A6:28:89:0C:A1:F7:1F:41:3C
                DirName:/C=CN/ST=BJ/L=BJ/O=99cloud/OU=bj/CN=99cloudca/name=EasyRSA/emailAddress=gong.yongsheng@99cloud.net
                serial:C4:71:D6:ED:32:8A:42:E3

            X509v3 Extended Key Usage: 
                TLS Web Server Authentication
            X509v3 Key Usage: 
                Digital Signature, Key Encipherment
    Signature Algorithm: sha256WithRSAEncryption
         eb:e5:a1:3f:08:64:91:7b:2a:9e:b1:c0:bc:15:5d:d8:93:ce:
         04:a2:40:03:80:0c:49:44:7f:c7:68:51:d5:8e:dd:85:1b:f5:
         f1:f9:42:d6:db:8d:c4:7e:56:31:72:19:91:59:67:be:8f:de:
         34:cb:c9:c7:37:e8:42:85:36:f1:22:d6:d3:a9:de:05:26:d8:
         7f:2c:f6:ec:cf:76:49:ec:0e:86:28:0c:5a:13:5e:54:cb:ee:
         3b:49:8e:72:32:61:84:09:dc:a6:ac:db:d0:6a:85:98:5e:bb:
         1e:73:11:bd:5c:18:b7:65:30:36:df:75:3c:59:bd:9b:0f:8b:
         83:50:2e:bb:fa:49:38:15:cf:d7:ac:b2:9c:22:50:c9:b5:e5:
         38:6d:27:f4:e2:33:e9:61:9b:0f:de:c2:31:ed:6c:e5:02:bc:
         b3:2e:53:b3:02:95:6f:6a:0c:ee:79:27:56:db:a1:19:53:b7:
         d9:fb:3c:c5:69:9c:de:d3:a0:18:c0:1b:32:41:30:27:5e:4c:
         b5:f4:57:ca:66:7d:fa:9e:67:aa:65:fc:2a:33:19:d5:02:8f:
         7a:94:e5:8e:50:a1:b5:dd:60:3c:71:0f:c7:34:0f:7e:16:25:
         3e:08:8c:f9:f7:2e:33:99:c2:31:d7:06:d5:55:d6:71:92:2a:
         24:e2:29:bb
-----BEGIN CERTIFICATE-----
MIIFHDCCBASgAwIBAgIBATANBgkqhkiG9w0BAQsFADCBlzELMAkGA1UEBhMCQ04x
CzAJBgNVBAgTAkJKMQswCQYDVQQHEwJCSjEQMA4GA1UEChMHOTljbG91ZDELMAkG
A1UECxMCYmoxEjAQBgNVBAMTCTk5Y2xvdWRjYTEQMA4GA1UEKRMHRWFzeVJTQTEp
MCcGCSqGSIb3DQEJARYaZ29uZy55b25nc2hlbmdAOTljbG91ZC5uZXQwHhcNMTUw
NDMwMDA1MzU3WhcNMjUwNDI3MDA1MzU3WjCBnjELMAkGA1UEBhMCQ04xCzAJBgNV
BAgTAkJKMQswCQYDVQQHEwJCSjEQMA4GA1UEChMHOTljbG91ZDELMAkGA1UECxMC
YmoxGTAXBgNVBAMTEDk5Y2xvdWR2cG5zZXJ2ZXIxEDAOBgNVBCkTB0Vhc3lSU0Ex
KTAnBgkqhkiG9w0BCQEWGmdvbmcueW9uZ3NoZW5nQDk5Y2xvdWQubmV0MIIBIjAN
BgkqhkiG9w0BAQEFAAOCAQ8AMIIBCgKCAQEAzDdFACxOOLYp/w/d0tI66YkOCf3v
ihCn1G9/cHhpEpvoMieciTobPwDh5eKo9vCvevl+G/v848sPx4eSi7NN+EaS2ajt
FHnQorSWRM7Af5l8GmiAJbzItbaq2tfZwR3kYmxIgFC3wbgRaMDy99r8V54EKeOS
ThcENuBlRVghMEmeKXdxouXh27rOJE26cuvBk/q7sRORjXHvsf4T6Icvjh7Nl04i
YpYcVC4dbASNccPAghvHv/cWhBXrpZ4XXtbJOmjpGFBVybGqro8/OHkVTFP3AoFc
RclvY1SMmTXJeR/a/IO/ybmcKf89m/iY/9+7ZDJTxYPlQCGlK4GlocqQIwIDAQAB
o4IBaDCCAWQwCQYDVR0TBAIwADARBglghkgBhvhCAQEEBAMCBkAwNAYJYIZIAYb4
QgENBCcWJUVhc3ktUlNBIEdlbmVyYXRlZCBTZXJ2ZXIgQ2VydGlmaWNhdGUwHQYD
VR0OBBYEFMl0Fe2T508FQVP+w7mwW9s5Y/toMIHMBgNVHSMEgcQwgcGAFFlqmYuC
iLZd9d4HpiiJDKH3H0E8oYGdpIGaMIGXMQswCQYDVQQGEwJDTjELMAkGA1UECBMC
QkoxCzAJBgNVBAcTAkJKMRAwDgYDVQQKEwc5OWNsb3VkMQswCQYDVQQLEwJiajES
MBAGA1UEAxMJOTljbG91ZGNhMRAwDgYDVQQpEwdFYXN5UlNBMSkwJwYJKoZIhvcN
AQkBFhpnb25nLnlvbmdzaGVuZ0A5OWNsb3VkLm5ldIIJAMRx1u0yikLjMBMGA1Ud
JQQMMAoGCCsGAQUFBwMBMAsGA1UdDwQEAwIFoDANBgkqhkiG9w0BAQsFAAOCAQEA
6+WhPwhkkXsqnrHAvBVd2JPOBKJAA4AMSUR/x2hR1Y7dhRv18flC1tuNxH5WMXIZ
kVlnvo/eNMvJxzfoQoU28SLW06neBSbYfyz27M92SewOhigMWhNeVMvuO0mOcjJh
hAncpqzb0GqFmF67HnMRvVwYt2UwNt91PFm9mw+Lg1Auu/pJOBXP16yynCJQybXl
OG0n9OIz6WGbD97CMe1s5QK8sy5TswKVb2oM7nknVtuhGVO32fs8xWmc3tOgGMAb
MkEwJ15MtfRXymZ9+p5nqmX8KjMZ1QKPepTljlChtd1gPHEPxzQPfhYlPgiM+fcu
M5nCMdcG1VXWcZIqJOIpuw==
-----END CERTIFICATE-----
